target datalayout = "e-m:e-p270:32:32-p271:32:32-p272:64:64-i64:64-i128:128-f80:128-n8:16:32:64-S128"
target triple = "x86_64-pc-linux-gnu"

%"class.spacer::unsat_core_plugin" = type { ptr, ptr, ptr }
%class.ast_mark = type { ptr, %class.obj_mark, %class.obj_mark.0 }
%class.obj_mark = type { [8 x i8], %class.bit_vector }
%class.bit_vector = type { i32, i32, ptr }
%class.obj_mark.0 = type { [8 x i8], %class.bit_vector }
%class.svector.22 = type { %class.vector.23 }
%class.vector.23 = type { ptr }
%class.obj_map.52 = type { %class.core_hashtable.53 }
%class.core_hashtable.53 = type <{ ptr, i32, i32, i32, [4 x i8] }>
%"class.spacer::unsat_core_plugin_min_cut" = type { %"class.spacer::unsat_core_plugin", %class.ast_mark, %class.obj_map.52, %class.obj_map.52, %class.vector.83, %class.ast_mark, %class.min_cut }
%class.vector.83 = type { ptr }
%class.min_cut = type { %class.vector.84, %class.svector.22, %class.svector.22 }
%class.vector.84 = type { ptr }

; Function Attrs: mustprogress nounwind uwtable
define linkonce_odr hidden noundef i32 @_ZNK6vectorIjLb0EjE4sizeEv(ptr noundef nonnull align 8 dereferenceable(8) %0) #5 comdat align 2 {
  %2 = alloca i32, align 4
  %3 = alloca ptr, align 8
  store ptr %0, ptr %3, align 8, !tbaa !244
  %4 = load ptr, ptr %3, align 8
  %5 = getelementptr inbounds nuw %class.vector.23, ptr %4, i32 0, i32 0
  %6 = load ptr, ptr %5, align 8, !tbaa !246
  %7 = icmp eq ptr %6, null
  br i1 %7, label %8, label %9

8:                                                ; preds = %1
  store i32 0, ptr %2, align 4
  br label %14

9:                                                ; preds = %1
  %10 = getelementptr inbounds nuw %class.vector.23, ptr %4, i32 0, i32 0
  %11 = load ptr, ptr %10, align 8, !tbaa !246
  %12 = getelementptr inbounds i32, ptr %11, i64 -1
  %13 = load i32, ptr %12, align 4, !tbaa !48
  store i32 %13, ptr %2, align 4
  br label %14

14:                                               ; preds = %9, %8
  %15 = load i32, ptr %2, align 4
  ret i32 %15
}

; Function Attrs: mustprogress nounwind uwtable
define linkonce_odr hidden void @_ZN6vectorIjLb0EjEC2Ev(ptr noundef nonnull align 8 dereferenceable(8) %0) unnamed_addr #5 comdat align 2 {
  %2 = alloca ptr, align 8
  store ptr %0, ptr %2, align 8, !tbaa !244
  %3 = load ptr, ptr %2, align 8
  %4 = getelementptr inbounds nuw %class.vector.23, ptr %3, i32 0, i32 0
  store ptr null, ptr %4, align 8, !tbaa !246
  ret void
}

; Function Attrs: mustprogress nounwind uwtable
define linkonce_odr hidden noundef nonnull align 8 dereferenceable(8) ptr @_ZN6vectorIP4exprLb1EjEixEj(ptr noundef nonnull align 8 dereferenceable(8) %0, i32 noundef %1) #5 comdat align 2 {
  %3 = alloca ptr, align 8
  %4 = alloca i32, align 4
  store ptr %0, ptr %3, align 8, !tbaa !230
  store i32 %1, ptr %4, align 4, !tbaa !48
  %5 = load ptr, ptr %3, align 8
  %6 = getelementptr inbounds nuw %class.vector.83, ptr %5, i32 0, i32 0
  %7 = load ptr, ptr %6, align 8, !tbaa !232
  %8 = load i32, ptr %4, align 4, !tbaa !48
  %9 = zext i32 %8 to i64
  %10 = getelementptr inbounds nuw ptr, ptr %7, i64 %9
  ret ptr %10
}

; Function Attrs: mustprogress uwtable
define linkonce_odr hidden noundef ptr @_ZN6vectorIjLb0EjE3endEv(ptr noundef nonnull align 8 dereferenceable(8) %0) #4 comdat align 2 {
  %2 = alloca ptr, align 8
  store ptr %0, ptr %2, align 8, !tbaa !244
  %3 = load ptr, ptr %2, align 8
  %4 = getelementptr inbounds nuw %class.vector.23, ptr %3, i32 0, i32 0
  %5 = load ptr, ptr %4, align 8, !tbaa !246
  %6 = call noundef i32 @_ZNK6vectorIjLb0EjE4sizeEv(ptr noundef nonnull align 8 dereferenceable(8) %3)
  %7 = zext i32 %6 to i64
  %8 = getelementptr inbounds nuw i32, ptr %5, i64 %7
  ret ptr %8
}

; Function Attrs: mustprogress nounwind uwtable
define linkonce_odr hidden noundef ptr @_ZN6vectorIjLb0EjE5beginEv(ptr noundef nonnull align 8 dereferenceable(8) %0) #5 comdat align 2 {
  %2 = alloca ptr, align 8
  store ptr %0, ptr %2, align 8, !tbaa !244
  %3 = load ptr, ptr %2, align 8
  %4 = getelementptr inbounds nuw %class.vector.23, ptr %3, i32 0, i32 0
  %5 = load ptr, ptr %4, align 8, !tbaa !246
  ret ptr %5
}

; Function Attrs: mustprogress nounwind uwtable
define linkonce_odr hidden void @_ZN7svectorIjjEC2Ev(ptr noundef nonnull align 8 dereferenceable(8) %0) unnamed_addr #5 comdat align 2 {
  %2 = alloca ptr, align 8
  store ptr %0, ptr %2, align 8, !tbaa !242
  %3 = load ptr, ptr %2, align 8
  call void @_ZN6vectorIjLb0EjEC2Ev(ptr noundef nonnull align 8 dereferenceable(8) %3) #3
  ret void
}

; Function Attrs: mustprogress uwtable
define hidden void @_ZN6spacer25unsat_core_plugin_min_cut8finalizeEv(ptr noundef nonnull align 8 dereferenceable(216) %0) unnamed_addr #4 align 2 personality ptr @__gxx_personality_v0 {
  %2 = alloca ptr, align 8
  %3 = alloca %class.svector.22, align 8
  %4 = alloca ptr, align 8
  %5 = alloca i32, align 4
  %6 = alloca ptr, align 8
  %7 = alloca ptr, align 8
  %8 = alloca ptr, align 8
  %9 = alloca i32, align 4
  store ptr %0, ptr %2, align 8, !tbaa !226
  %10 = load ptr, ptr %2, align 8
  call void @llvm.lifetime.start.p0(i64 8, ptr %3) #3
  call void @_ZN7svectorIjjEC2Ev(ptr noundef nonnull align 8 dereferenceable(8) %3) #3
  %11 = getelementptr inbounds nuw %"class.spacer::unsat_core_plugin_min_cut", ptr %10, i32 0, i32 6
  invoke void @_ZN7min_cut15compute_min_cutER7svectorIjjE(ptr noundef nonnull align 8 dereferenceable(24) %11, ptr noundef nonnull align 8 dereferenceable(8) %3)
          to label %12 unwind label %24

12:                                               ; preds = %1
  call void @llvm.lifetime.start.p0(i64 8, ptr %6) #3
  store ptr %3, ptr %6, align 8, !tbaa !242
  call void @llvm.lifetime.start.p0(i64 8, ptr %7) #3
  %13 = load ptr, ptr %6, align 8, !tbaa !242
  %14 = invoke noundef ptr @_ZN6vectorIjLb0EjE5beginEv(ptr noundef nonnull align 8 dereferenceable(8) %13)
          to label %15 unwind label %28

15:                                               ; preds = %12
  store ptr %14, ptr %7, align 8, !tbaa !164
  call void @llvm.lifetime.start.p0(i64 8, ptr %8) #3
  %16 = load ptr, ptr %6, align 8, !tbaa !242
  %17 = invoke noundef ptr @_ZN6vectorIjLb0EjE3endEv(ptr noundef nonnull align 8 dereferenceable(8) %16)
          to label %18 unwind label %32

18:                                               ; preds = %15
  store ptr %17, ptr %8, align 8, !tbaa !164
  br label %19

19:                                               ; preds = %47, %18
  %20 = load ptr, ptr %7, align 8, !tbaa !164
  %21 = load ptr, ptr %8, align 8, !tbaa !164
  %22 = icmp ne ptr %20, %21
  br i1 %22, label %36, label %23

23:                                               ; preds = %19
  call void @llvm.lifetime.end.p0(i64 8, ptr %8) #3
  call void @llvm.lifetime.end.p0(i64 8, ptr %7) #3
  call void @llvm.lifetime.end.p0(i64 8, ptr %6) #3
  br label %56

24:                                               ; preds = %1
  %25 = landingpad { ptr, i32 }
          cleanup
  %26 = extractvalue { ptr, i32 } %25, 0
  store ptr %26, ptr %4, align 8
  %27 = extractvalue { ptr, i32 } %25, 1
  store i32 %27, ptr %5, align 4
  br label %57

28:                                               ; preds = %12
  %29 = landingpad { ptr, i32 }
          cleanup
  %30 = extractvalue { ptr, i32 } %29, 0
  store ptr %30, ptr %4, align 8
  %31 = extractvalue { ptr, i32 } %29, 1
  store i32 %31, ptr %5, align 4
  br label %55

32:                                               ; preds = %15
  %33 = landingpad { ptr, i32 }
          cleanup
  %34 = extractvalue { ptr, i32 } %33, 0
  store ptr %34, ptr %4, align 8
  %35 = extractvalue { ptr, i32 } %33, 1
  store i32 %35, ptr %5, align 4
  br label %54

36:                                               ; preds = %19
  call void @llvm.lifetime.start.p0(i64 4, ptr %9) #3
  %37 = load ptr, ptr %7, align 8, !tbaa !164
  %38 = load i32, ptr %37, align 4, !tbaa !48
  store i32 %38, ptr %9, align 4, !tbaa !48
  %39 = getelementptr inbounds nuw %"class.spacer::unsat_core_plugin", ptr %10, i32 0, i32 2
  %40 = load ptr, ptr %39, align 8, !tbaa !45
  %41 = getelementptr inbounds nuw %"class.spacer::unsat_core_plugin_min_cut", ptr %10, i32 0, i32 4
  %42 = load i32, ptr %9, align 4, !tbaa !48
  %43 = invoke noundef nonnull align 8 dereferenceable(8) ptr @_ZN6vectorIP4exprLb1EjEixEj(ptr noundef nonnull align 8 dereferenceable(8) %41, i32 noundef %42)
          to label %44 unwind label %50

44:                                               ; preds = %36
  %45 = load ptr, ptr %43, align 8, !tbaa !51
  invoke void @_ZN6spacer18unsat_core_learner17add_lemma_to_coreEP4expr(ptr noundef nonnull align 8 dereferenceable(104) %40, ptr noundef %45)
          to label %46 unwind label %50

46:                                               ; preds = %44
  call void @llvm.lifetime.end.p0(i64 4, ptr %9) #3
  br label %47

47:                                               ; preds = %46
  %48 = load ptr, ptr %7, align 8, !tbaa !164
  %49 = getelementptr inbounds nuw i32, ptr %48, i32 1
  store ptr %49, ptr %7, align 8, !tbaa !164
  br label %19

50:                                               ; preds = %44, %36
  %51 = landingpad { ptr, i32 }
          cleanup
  %52 = extractvalue { ptr, i32 } %51, 0
  store ptr %52, ptr %4, align 8
  %53 = extractvalue { ptr, i32 } %51, 1
  store i32 %53, ptr %5, align 4
  call void @llvm.lifetime.end.p0(i64 4, ptr %9) #3
  br label %54

54:                                               ; preds = %50, %32
  call void @llvm.lifetime.end.p0(i64 8, ptr %8) #3
  br label %55

55:                                               ; preds = %54, %28
  call void @llvm.lifetime.end.p0(i64 8, ptr %7) #3
  call void @llvm.lifetime.end.p0(i64 8, ptr %6) #3
  br label %57

56:                                               ; preds = %23
  call void @_ZN6vectorIjLb0EjED2Ev(ptr noundef nonnull align 8 dereferenceable(8) %3) #3
  call void @llvm.lifetime.end.p0(i64 8, ptr %3) #3
  ret void

57:                                               ; preds = %55, %24
  call void @_ZN6vectorIjLb0EjED2Ev(ptr noundef nonnull align 8 dereferenceable(8) %3) #3
  call void @llvm.lifetime.end.p0(i64 8, ptr %3) #3
  br label %58

58:                                               ; preds = %57
  %59 = load ptr, ptr %4, align 8
  %60 = load i32, ptr %5, align 4
  %61 = insertvalue { ptr, i32 } poison, ptr %59, 0
  %62 = insertvalue { ptr, i32 } %61, i32 %60, 1
  resume { ptr, i32 } %62
}