; Function Attrs: mustprogress uwtable
define hidden void @_ZN6spacer25unsat_core_plugin_min_cut8finalizeEv(ptr noundef nonnull align 8 dereferenceable(216) %0) unnamed_addr #4 align 2 personality ptr @__gxx_personality_v0 {
  %2 = alloca %class.svector.22, align 8
  call void @llvm.lifetime.start.p0(i64 8, ptr nonnull %2) #23
  store ptr null, ptr %2, align 8, !tbaa !181
  %3 = getelementptr inbounds nuw i8, ptr %0, i64 192
  invoke void @_ZN7min_cut15compute_min_cutER7svectorIjjE(ptr noundef nonnull align 8 dereferenceable(24) %3, ptr noundef nonnull align 8 dereferenceable(8) %2)
          to label %4 unwind label %18

4:                                                ; preds = %1
  %5 = load ptr, ptr %2, align 8, !tbaa !181
  %6 = icmp eq ptr %5, null
  br i1 %6, label %_ZN6vectorIjLb0EjED2Ev.exit, label %_ZN6vectorIjLb0EjE3endEv.exit

_ZN6vectorIjLb0EjE3endEv.exit:                    ; preds = %4
  %7 = getelementptr inbounds i8, ptr %5, i64 -4
  %8 = load i32, ptr %7, align 4, !tbaa !160
  %9 = zext i32 %8 to i64
  %10 = getelementptr inbounds nuw i32, ptr %5, i64 %9
  %.not14 = icmp eq i32 %8, 0
  br i1 %.not14, label %._crit_edge.thread19, label %.lr.ph

.lr.ph:                                           ; preds = %_ZN6vectorIjLb0EjE3endEv.exit
  %11 = getelementptr inbounds nuw i8, ptr %0, i64 16
  %12 = getelementptr inbounds nuw i8, ptr %0, i64 128
  br label %20

._crit_edge:                                      ; preds = %27
  %.pre = load ptr, ptr %2, align 8, !tbaa !181
  %.not.i.i = icmp eq ptr %.pre, null
  br i1 %.not.i.i, label %_ZN6vectorIjLb0EjED2Ev.exit, label %._crit_edge.thread19

._crit_edge.thread19:                             ; preds = %_ZN6vectorIjLb0EjE3endEv.exit, %._crit_edge
  %13 = phi ptr [ %.pre, %._crit_edge ], [ %5, %_ZN6vectorIjLb0EjE3endEv.exit ]
  %14 = getelementptr inbounds i8, ptr %13, i64 -8
  invoke void @_ZN6memory10deallocateEPv(ptr noundef nonnull %14)
          to label %_ZN6vectorIjLb0EjED2Ev.exit unwind label %15

15:                                               ; preds = %._crit_edge.thread19
  %16 = landingpad { ptr, i32 }
          catch ptr null
  %17 = extractvalue { ptr, i32 } %16, 0
  call void @__clang_call_terminate(ptr %17) #24
  unreachable

_ZN6vectorIjLb0EjED2Ev.exit:                      ; preds = %4, %._crit_edge, %._crit_edge.thread19
  call void @llvm.lifetime.end.p0(i64 8, ptr nonnull %2) #23
  ret void

18:                                               ; preds = %1
  %19 = landingpad { ptr, i32 }
          cleanup
  br label %31

20:                                               ; preds = %.lr.ph, %27
  %.01115 = phi ptr [ %5, %.lr.ph ], [ %28, %27 ]
  %21 = load i32, ptr %.01115, align 4, !tbaa !160
  %22 = load ptr, ptr %11, align 8, !tbaa !108
  %23 = load ptr, ptr %12, align 8, !tbaa !333
  %24 = zext i32 %21 to i64
  %25 = getelementptr inbounds nuw ptr, ptr %23, i64 %24
  %26 = load ptr, ptr %25, align 8, !tbaa !41
  invoke void @_ZN6spacer18unsat_core_learner17add_lemma_to_coreEP4expr(ptr noundef nonnull align 8 dereferenceable(104) %22, ptr noundef %26)
          to label %27 unwind label %29

27:                                               ; preds = %20
  %28 = getelementptr inbounds nuw i8, ptr %.01115, i64 4
  %.not = icmp eq ptr %28, %10
  br i1 %.not, label %._crit_edge, label %20

29:                                               ; preds = %20
  %30 = landingpad { ptr, i32 }
          cleanup
  br label %31

31:                                               ; preds = %29, %18
  %.pn.pn = phi { ptr, i32 } [ %19, %18 ], [ %30, %29 ]
  call void @_ZN6vectorIjLb0EjED2Ev(ptr noundef nonnull align 8 dereferenceable(8) %2) #23
  call void @llvm.lifetime.end.p0(i64 8, ptr nonnull %2) #23
  resume { ptr, i32 } %.pn.pn
}